; Function Attrs: nounwind uwtable
define ptr @duckdb_je_arena_set_extent_hooks(ptr noundef %0, ptr noundef %1, ptr noundef %2) local_unnamed_addr #0 {
  %4 = getelementptr i8, ptr %1, i64 78952
  %.val = load i32, ptr %4, align 8, !tbaa !138
  %5 = load ptr, ptr @duckdb_je_background_thread_info, align 8, !tbaa !139
  %6 = zext i32 %.val to i64
  %7 = load i64, ptr @duckdb_je_max_background_threads, align 8, !tbaa !10
  %8 = urem i64 %6, %7
  %9 = getelementptr inbounds nuw %struct.background_thread_info_s, ptr %5, i64 %8, i32 2
  %10 = getelementptr inbounds nuw i8, ptr %9, i64 72
  %11 = tail call i32 @pthread_mutex_trylock(ptr noundef nonnull %10) #18
  %.not.i = icmp eq i32 %11, 0
  br i1 %.not.i, label %14, label %12

12:                                               ; preds = %3
  tail call void @duckdb_je_malloc_mutex_lock_slow(ptr noundef nonnull %9) #18
  %13 = getelementptr inbounds nuw i8, ptr %9, i64 64
  store atomic i8 1, ptr %13 monotonic, align 1
  br label %14

14:                                               ; preds = %12, %3
  %15 = getelementptr inbounds nuw i8, ptr %9, i64 56
  %16 = load i64, ptr %15, align 8, !tbaa !72
  %17 = add i64 %16, 1
  store i64 %17, ptr %15, align 8, !tbaa !72
  %18 = getelementptr inbounds nuw i8, ptr %9, i64 48
  %19 = load ptr, ptr %18, align 8, !tbaa !74
  %.not.i.i = icmp eq ptr %19, %0
  br i1 %.not.i.i, label %malloc_mutex_lock.exit, label %20

20:                                               ; preds = %14
  store ptr %0, ptr %18, align 8, !tbaa !74
  %21 = getelementptr inbounds nuw i8, ptr %9, i64 40
  %22 = load i64, ptr %21, align 8, !tbaa !75
  %23 = add i64 %22, 1
  store i64 %23, ptr %21, align 8, !tbaa !75
  br label %malloc_mutex_lock.exit

malloc_mutex_lock.exit:                           ; preds = %14, %20
  %24 = getelementptr inbounds nuw i8, ptr %1, i64 10664
  tail call void @duckdb_je_pa_shard_disable_hpa(ptr noundef %0, ptr noundef nonnull %24) #18
  %25 = getelementptr inbounds nuw i8, ptr %1, i64 78960
  %26 = load ptr, ptr %25, align 16, !tbaa !12
  %27 = tail call ptr @duckdb_je_base_extent_hooks_set(ptr noundef %26, ptr noundef %2) #18
  %28 = getelementptr inbounds nuw i8, ptr %9, i64 64
  store atomic i8 0, ptr %28 monotonic, align 1
  %29 = tail call i32 @pthread_mutex_unlock(ptr noundef nonnull %10) #18
  ret ptr %27
}